target datalayout = "e-m:e-p270:32:32-p271:32:32-p272:64:64-i64:64-i128:128-f80:128-n8:16:32:64-S128"
target triple = "x86_64-pc-linux-gnu"

%"struct.duckdb_fmt::v6::internal::fallback_uintptr" = type { [8 x i8] }

; Function Attrs: inlinehint mustprogress nounwind uwtable
define linkonce_odr noundef i32 @_ZN10duckdb_fmt2v68internal12count_digitsILj4EjEEiT0_(i32 noundef %0) #4 comdat {
  %2 = alloca i32, align 4
  %3 = alloca i32, align 4
  store i32 %0, ptr %2, align 4, !tbaa !3
  call void @llvm.lifetime.start.p0(i64 4, ptr %3) #20
  store i32 0, ptr %3, align 4, !tbaa !3
  br label %4

4:                                                ; preds = %7, %1
  %5 = load i32, ptr %3, align 4, !tbaa !3
  %6 = add nsw i32 %5, 1
  store i32 %6, ptr %3, align 4, !tbaa !3
  br label %7

7:                                                ; preds = %4
  %8 = load i32, ptr %2, align 4, !tbaa !3
  %9 = lshr i32 %8, 4
  store i32 %9, ptr %2, align 4, !tbaa !3
  %10 = icmp ne i32 %9, 0
  br i1 %10, label %4, label %11, !llvm.loop !49

11:                                               ; preds = %7
  %12 = load i32, ptr %3, align 4, !tbaa !3
  call void @llvm.lifetime.end.p0(i64 4, ptr %3) #20
  ret i32 %12
}

; Function Attrs: mustprogress uwtable
define noundef i32 @_ZN10duckdb_fmt2v68internal12count_digitsILj4ENS1_16fallback_uintptrEEEiT0_(i64 %0) #3 {
  %2 = alloca %"struct.duckdb_fmt::v6::internal::fallback_uintptr", align 1
  %3 = alloca i32, align 4
  %4 = alloca i32, align 4
  %5 = getelementptr inbounds nuw %"struct.duckdb_fmt::v6::internal::fallback_uintptr", ptr %2, i32 0, i32 0
  store i64 %0, ptr %5, align 1
  call void @llvm.lifetime.start.p0(i64 4, ptr %3) #20
  store i32 7, ptr %3, align 4, !tbaa !3
  br label %6

6:                                                ; preds = %19, %1
  %7 = load i32, ptr %3, align 4, !tbaa !3
  %8 = icmp sgt i32 %7, 0
  br i1 %8, label %9, label %17

9:                                                ; preds = %6
  %10 = getelementptr inbounds nuw %"struct.duckdb_fmt::v6::internal::fallback_uintptr", ptr %2, i32 0, i32 0
  %11 = load i32, ptr %3, align 4, !tbaa !3
  %12 = sext i32 %11 to i64
  %13 = getelementptr inbounds [8 x i8], ptr %10, i64 0, i64 %12
  %14 = load i8, ptr %13, align 1, !tbaa !46
  %15 = zext i8 %14 to i32
  %16 = icmp eq i32 %15, 0
  br label %17

17:                                               ; preds = %9, %6
  %18 = phi i1 [ false, %6 ], [ %16, %9 ]
  br i1 %18, label %19, label %22

19:                                               ; preds = %17
  %20 = load i32, ptr %3, align 4, !tbaa !3
  %21 = add nsw i32 %20, -1
  store i32 %21, ptr %3, align 4, !tbaa !3
  br label %6, !llvm.loop !47

22:                                               ; preds = %17
  call void @llvm.lifetime.start.p0(i64 4, ptr %4) #20
  store i32 2, ptr %4, align 4, !tbaa !3
  %23 = load i32, ptr %3, align 4, !tbaa !3
  %24 = icmp sge i32 %23, 0
  br i1 %24, label %25, label %37

25:                                               ; preds = %22
  %26 = load i32, ptr %3, align 4, !tbaa !3
  %27 = load i32, ptr %4, align 4, !tbaa !3
  %28 = mul nsw i32 %26, %27
  %29 = getelementptr inbounds nuw %"struct.duckdb_fmt::v6::internal::fallback_uintptr", ptr %2, i32 0, i32 0
  %30 = load i32, ptr %3, align 4, !tbaa !3
  %31 = sext i32 %30 to i64
  %32 = getelementptr inbounds [8 x i8], ptr %29, i64 0, i64 %31
  %33 = load i8, ptr %32, align 1, !tbaa !46
  %34 = zext i8 %33 to i32
  %35 = call noundef i32 @_ZN10duckdb_fmt2v68internal12count_digitsILj4EjEEiT0_(i32 noundef %34)
  %36 = add nsw i32 %28, %35
  br label %38

37:                                               ; preds = %22
  br label %38

38:                                               ; preds = %37, %25
  %39 = phi i32 [ %36, %25 ], [ 1, %37 ]
  call void @llvm.lifetime.end.p0(i64 4, ptr %4) #20
  call void @llvm.lifetime.end.p0(i64 4, ptr %3) #20
  ret i32 %39
}