; Function Attrs: mustprogress nofree norecurse nosync nounwind willreturn memory(none) uwtable
define noundef range(i32 1, 0) i32 @_ZN10duckdb_fmt2v68internal12count_digitsILj4ENS1_16fallback_uintptrEEEiT0_(i64 %0) local_unnamed_addr #5 {
  %2 = alloca %"struct.duckdb_fmt::v6::internal::fallback_uintptr", align 8
  store i64 %0, ptr %2, align 8
  %3 = trunc i64 %0 to i8
  br label %4

4:                                                ; preds = %1, %9
  %.07 = phi i32 [ 7, %1 ], [ %10, %9 ]
  %5 = zext nneg i32 %.07 to i64
  %6 = getelementptr inbounds nuw [8 x i8], ptr %2, i64 0, i64 %5
  %7 = load i8, ptr %6, align 1, !tbaa !18
  %8 = icmp eq i8 %7, 0
  br i1 %8, label %9, label %.critedgesplit

9:                                                ; preds = %4
  %10 = add nsw i32 %.07, -1
  %11 = icmp ugt i32 %.07, 1
  br i1 %11, label %4, label %.critedge, !llvm.loop !21

.critedgesplit:                                   ; preds = %4
  %12 = shl nuw nsw i32 %.07, 1
  br label %.critedge

.critedge:                                        ; preds = %9, %.critedgesplit
  %13 = phi i8 [ %7, %.critedgesplit ], [ %3, %9 ]
  %.0.lcssa = phi i32 [ %12, %.critedgesplit ], [ 0, %9 ]
  %14 = zext i8 %13 to i32
  br label %15

15:                                               ; preds = %15, %.critedge
  %.03.i = phi i32 [ %14, %.critedge ], [ %17, %15 ]
  %.0.i = phi i32 [ 0, %.critedge ], [ %16, %15 ]
  %16 = add nuw nsw i32 %.0.i, 1
  %17 = lshr i32 %.03.i, 4
  %.not.i = icmp samesign ult i32 %.03.i, 16
  br i1 %.not.i, label %_ZN10duckdb_fmt2v68internal12count_digitsILj4EjEEiT0_.exit, label %15, !llvm.loop !22

_ZN10duckdb_fmt2v68internal12count_digitsILj4EjEEiT0_.exit: ; preds = %15
  %18 = add nuw nsw i32 %16, %.0.lcssa
  ret i32 %18
}